; Function Attrs: nounwind uwtable
define internal fastcc void @constrainY(ptr noundef %0, ptr noundef %1, i32 noundef %2, ptr noundef readonly captures(none) %3, i32 noundef range(i32 0, 2) %4) unnamed_addr #0 {
  %6 = load ptr, ptr @Dtobag, align 8, !tbaa !52
  %7 = tail call ptr @dtopen(ptr noundef nonnull @constr, ptr noundef %6) #17
  %8 = icmp sgt i32 %2, 0
  br i1 %8, label %.lr.ph, label %._crit_edge

.lr.ph:                                           ; preds = %5, %.lr.ph
  %.038 = phi ptr [ %14, %.lr.ph ], [ %1, %5 ]
  %.03437 = phi i32 [ %15, %.lr.ph ], [ 0, %5 ]
  %9 = getelementptr inbounds nuw i8, ptr %.038, i64 24
  %10 = load i32, ptr %9, align 4, !tbaa !40
  %11 = getelementptr inbounds nuw i8, ptr %.038, i64 16
  store i32 %10, ptr %11, align 8, !tbaa !53
  %12 = load ptr, ptr %7, align 8, !tbaa !54
  %13 = tail call ptr %12(ptr noundef nonnull %7, ptr noundef %.038, i32 noundef 1) #17
  %14 = getelementptr inbounds nuw i8, ptr %.038, i64 72
  %15 = add nuw nsw i32 %.03437, 1
  %exitcond.not = icmp eq i32 %15, %2
  br i1 %exitcond.not, label %._crit_edge, label %.lr.ph, !llvm.loop !66

._crit_edge:                                      ; preds = %.lr.ph, %5
  %.not = icmp eq i32 %4, 0
  br i1 %.not, label %18, label %16

16:                                               ; preds = %._crit_edge
  %17 = tail call fastcc ptr @mkConstraintG(ptr noundef %7, ptr noundef %3, ptr noundef nonnull @distY)
  br label %20

18:                                               ; preds = %._crit_edge
  %19 = tail call fastcc ptr @mkNConstraintG(ptr noundef %0, ptr noundef %7, ptr noundef %3, ptr noundef nonnull @distY)
  br label %20

20:                                               ; preds = %18, %16
  %.033 = phi ptr [ %17, %16 ], [ %19, %18 ]
  %21 = tail call i32 @rank(ptr noundef %.033, i32 noundef 2, i32 noundef 2147483647) #17
  br i1 %8, label %.lr.ph42, label %._crit_edge43

.lr.ph42:                                         ; preds = %20, %.lr.ph42
  %.140 = phi ptr [ %37, %.lr.ph42 ], [ %1, %20 ]
  %.13539 = phi i32 [ %38, %.lr.ph42 ], [ 0, %20 ]
  %22 = getelementptr inbounds nuw i8, ptr %.140, i64 24
  %23 = load i32, ptr %22, align 4, !tbaa !40
  %24 = getelementptr inbounds nuw i8, ptr %.140, i64 40
  %25 = load ptr, ptr %24, align 8, !tbaa !60
  %26 = getelementptr inbounds nuw i8, ptr %25, i64 16
  %27 = load ptr, ptr %26, align 8, !tbaa !12
  %28 = getelementptr inbounds nuw i8, ptr %27, i64 360
  %29 = load i32, ptr %28, align 8, !tbaa !61
  %30 = sub nsw i32 %29, %23
  store i32 %29, ptr %22, align 4, !tbaa !40
  %31 = getelementptr inbounds nuw i8, ptr %.140, i64 60
  %32 = load i32, ptr %31, align 4, !tbaa !49
  %33 = add nsw i32 %32, %30
  store i32 %33, ptr %31, align 4, !tbaa !49
  %34 = getelementptr inbounds nuw i8, ptr %.140, i64 68
  %35 = load i32, ptr %34, align 4, !tbaa !48
  %36 = add nsw i32 %35, %30
  store i32 %36, ptr %34, align 4, !tbaa !48
  %37 = getelementptr inbounds nuw i8, ptr %.140, i64 72
  %38 = add nuw nsw i32 %.13539, 1
  %exitcond44.not = icmp eq i32 %38, %2
  br i1 %exitcond44.not, label %._crit_edge43, label %.lr.ph42, !llvm.loop !67

._crit_edge43:                                    ; preds = %.lr.ph42, %20
  %39 = tail call ptr @agfstnode(ptr noundef %.033) #17
  %.not7.i = icmp eq ptr %39, null
  br i1 %.not7.i, label %closeGraph.exit, label %.lr.ph.i

.lr.ph.i:                                         ; preds = %._crit_edge43, %.lr.ph.i
  %.08.i = phi ptr [ %47, %.lr.ph.i ], [ %39, %._crit_edge43 ]
  %40 = getelementptr inbounds nuw i8, ptr %.08.i, i64 16
  %41 = load ptr, ptr %40, align 8, !tbaa !12
  %42 = getelementptr inbounds nuw i8, ptr %41, i64 256
  %43 = load ptr, ptr %42, align 8, !tbaa !63
  tail call void @free(ptr noundef %43) #17
  %44 = load ptr, ptr %40, align 8, !tbaa !12
  %45 = getelementptr inbounds nuw i8, ptr %44, i64 272
  %46 = load ptr, ptr %45, align 8, !tbaa !64
  tail call void @free(ptr noundef %46) #17
  %47 = tail call ptr @agnxtnode(ptr noundef %.033, ptr noundef nonnull %.08.i) #17
  %.not.i = icmp eq ptr %47, null
  br i1 %.not.i, label %closeGraph.exit, label %.lr.ph.i, !llvm.loop !65

closeGraph.exit:                                  ; preds = %.lr.ph.i, %._crit_edge43
  %48 = tail call i32 @agclose(ptr noundef %.033) #17
  %49 = tail call i32 @dtclose(ptr noundef %7) #17
  ret void
}